target datalayout = "e-m:e-p270:32:32-p271:32:32-p272:64:64-i64:64-i128:128-f80:128-n8:16:32:64-S128"
target triple = "x86_64-pc-linux-gnu"

@.str = private unnamed_addr constant [110 x i8] c"generated/home/dtcxzyw/WorkSpace/Projects/compilers/llvm-opt-benchmark/bench/hdf5/hdf5/src/H5VLnative_group.c\00", align 1
@H5E_SYM_g = external global i64, align 8
@__func__.H5VL__native_group_close = private unnamed_addr constant [25 x i8] c"H5VL__native_group_close\00", align 1
@H5E_CLOSEERROR_g = external global i64, align 8
@.str.20 = private unnamed_addr constant [18 x i8] c"can't close group\00", align 1

; Function Attrs: nounwind uwtable
define i32 @H5VL__native_group_close(ptr noundef %0, i64 noundef %1, ptr noundef %2) #0 {
  %4 = alloca ptr, align 8
  %5 = alloca i64, align 8
  %6 = alloca ptr, align 8
  %7 = alloca i32, align 4
  %8 = alloca i8, align 1
  store ptr %0, ptr %4, align 8
  store i64 %1, ptr %5, align 8
  store ptr %2, ptr %6, align 8
  store i32 0, ptr %7, align 4
  store i8 0, ptr %8, align 1
  %9 = load ptr, ptr %4, align 8
  %10 = call i32 @H5G_close(ptr noundef %9)
  %11 = icmp slt i32 %10, 0
  br i1 %11, label %12, label %27

12:                                               ; preds = %3
  br label %13

13:                                               ; preds = %12
  br label %14

14:                                               ; preds = %13
  br label %15

15:                                               ; preds = %14
  %16 = load i64, ptr @H5E_SYM_g, align 8
  %17 = load i64, ptr @H5E_CLOSEERROR_g, align 8
  %18 = call i32 (ptr, ptr, i32, i64, i64, ptr, ...) @H5E_printf_stack(ptr noundef @.str, ptr noundef @__func__.H5VL__native_group_close, i32 noundef 398, i64 noundef %16, i64 noundef %17, ptr noundef @.str.20)
  br label %19

19:                                               ; preds = %15
  store i8 1, ptr %8, align 1
  %20 = load i8, ptr %8, align 1
  %21 = trunc i8 %20 to i1
  %22 = zext i1 %21 to i8
  store i8 %22, ptr %8, align 1
  br label %23

23:                                               ; preds = %19
  br label %24

24:                                               ; preds = %23
  store i32 -1, ptr %7, align 4
  br label %28

25:                                               ; No predecessors!
  br label %26

26:                                               ; preds = %25
  br label %27

27:                                               ; preds = %26, %3
  br label %28

28:                                               ; preds = %27, %24
  %29 = load i32, ptr %7, align 4
  ret i32 %29
}