; Function Attrs: nounwind uwtable
define range(i32 -1, 1) i32 @H5VL__native_group_close(ptr noundef %0, i64 noundef %1, ptr nocapture noundef readnone %2) local_unnamed_addr #0 {
  %4 = tail call i32 @H5G_close(ptr noundef %0) #3
  %5 = icmp slt i32 %4, 0
  br i1 %5, label %6, label %10

6:                                                ; preds = %3
  %7 = load i64, ptr @H5E_SYM_g, align 8
  %8 = load i64, ptr @H5E_CLOSEERROR_g, align 8
  %9 = tail call i32 (ptr, ptr, i32, i64, i64, ptr, ...) @H5E_printf_stack(ptr noundef nonnull @.str, ptr noundef nonnull @__func__.H5VL__native_group_close, i32 noundef 398, i64 noundef %7, i64 noundef %8, ptr noundef nonnull @.str.20) #3
  br label %10

10:                                               ; preds = %3, %6
  %.0 = phi i32 [ -1, %6 ], [ 0, %3 ]
  ret i32 %.0
}